target datalayout = "e-m:e-p270:32:32-p271:32:32-p272:64:64-i64:64-i128:128-f80:128-n8:16:32:64-S128"
target triple = "x86_64-unknown-linux-gnu"

@_ZL41g_default_client_tcp_user_timeout_enabled = internal global i8 0, align 1
@_ZL36g_default_client_tcp_user_timeout_ms = internal global i32 20000, align 4
@_ZL41g_default_server_tcp_user_timeout_enabled = internal global i8 1, align 1
@_ZL36g_default_server_tcp_user_timeout_ms = internal global i32 20000, align 4

; Function Attrs: mustprogress nounwind uwtable
define void @_Z31config_default_tcp_user_timeoutbib(i1 noundef zeroext %enable, i32 noundef %timeout, i1 noundef zeroext %is_client) #5 {
entry:
  %enable.addr = alloca i8, align 1
  %timeout.addr = alloca i32, align 4
  %is_client.addr = alloca i8, align 1
  %frombool = zext i1 %enable to i8
  store i8 %frombool, ptr %enable.addr, align 1
  store i32 %timeout, ptr %timeout.addr, align 4
  %frombool1 = zext i1 %is_client to i8
  store i8 %frombool1, ptr %is_client.addr, align 1
  %0 = load i8, ptr %is_client.addr, align 1
  %tobool = trunc i8 %0 to i1
  br i1 %tobool, label %if.then, label %if.else

if.then:                                          ; preds = %entry
  %1 = load i8, ptr %enable.addr, align 1
  %tobool2 = trunc i8 %1 to i1
  %frombool3 = zext i1 %tobool2 to i8
  store i8 %frombool3, ptr @_ZL41g_default_client_tcp_user_timeout_enabled, align 1
  %2 = load i32, ptr %timeout.addr, align 4
  %cmp = icmp sgt i32 %2, 0
  br i1 %cmp, label %if.then4, label %if.end

if.then4:                                         ; preds = %if.then
  %3 = load i32, ptr %timeout.addr, align 4
  store i32 %3, ptr @_ZL36g_default_client_tcp_user_timeout_ms, align 4
  br label %if.end

if.end:                                           ; preds = %if.then4, %if.then
  br label %if.end10

if.else:                                          ; preds = %entry
  %4 = load i8, ptr %enable.addr, align 1
  %tobool5 = trunc i8 %4 to i1
  %frombool6 = zext i1 %tobool5 to i8
  store i8 %frombool6, ptr @_ZL41g_default_server_tcp_user_timeout_enabled, align 1
  %5 = load i32, ptr %timeout.addr, align 4
  %cmp7 = icmp sgt i32 %5, 0
  br i1 %cmp7, label %if.then8, label %if.end9

if.then8:                                         ; preds = %if.else
  %6 = load i32, ptr %timeout.addr, align 4
  store i32 %6, ptr @_ZL36g_default_server_tcp_user_timeout_ms, align 4
  br label %if.end9

if.end9:                                          ; preds = %if.then8, %if.else
  br label %if.end10

if.end10:                                         ; preds = %if.end9, %if.end
  ret void
}