; Function Attrs: mustprogress nofree norecurse nosync nounwind willreturn memory(write, inaccessiblemem: none) uwtable
define void @_Z31config_default_tcp_user_timeoutbib(i1 noundef zeroext %enable, i32 noundef %timeout, i1 noundef zeroext %is_client) local_unnamed_addr #8 {
entry:
  %frombool = zext i1 %enable to i8
  %cmp = icmp sgt i32 %timeout, 0
  br i1 %is_client, label %if.then, label %if.else

if.then:                                          ; preds = %entry
  store i8 %frombool, ptr @_ZL41g_default_client_tcp_user_timeout_enabled, align 1
  br i1 %cmp, label %if.end10.sink.split, label %if.end10

if.else:                                          ; preds = %entry
  store i8 %frombool, ptr @_ZL41g_default_server_tcp_user_timeout_enabled, align 1
  br i1 %cmp, label %if.end10.sink.split, label %if.end10

if.end10.sink.split:                              ; preds = %if.else, %if.then
  %_ZL36g_default_server_tcp_user_timeout_ms.sink = phi ptr [ @_ZL36g_default_client_tcp_user_timeout_ms, %if.then ], [ @_ZL36g_default_server_tcp_user_timeout_ms, %if.else ]
  store i32 %timeout, ptr %_ZL36g_default_server_tcp_user_timeout_ms.sink, align 4
  br label %if.end10

if.end10:                                         ; preds = %if.end10.sink.split, %if.else, %if.then
  ret void
}